target datalayout = "e-m:e-p270:32:32-p271:32:32-p272:64:64-i64:64-i128:128-f80:128-n8:16:32:64-S128"
target triple = "x86_64-pc-linux-gnu"

%struct.MpegEncContext = type { ptr, i32, i32, i32, [12 x i32], i32, %struct.ScanTable, %struct.ScanTable, [64 x i8], [64 x i8], ptr, ptr, i32, i32, i32, i32, i32, i32, i32, i32, i32, i32, i32, i32, i32, i32, i32, i32, i32, i32, i32, i32, i64, i64, ptr, %struct.BufferPoolContext, i32, i32, %union.anon, i32, %struct.MPVWorkPicture, %struct.MPVWorkPicture, %struct.MPVWorkPicture, i32, [3 x i32], ptr, [3 x ptr], ptr, ptr, ptr, ptr, ptr, ptr, [3 x ptr], i32, ptr, ptr, ptr, ptr, %struct.ScratchpadContext, i32, i32, i32, i32, i32, i32, %struct.BlockDSPContext, %struct.H264ChromaContext, %struct.HpelDSPContext, %struct.IDCTDSPContext, %struct.QpelDSPContext, %struct.VideoDSPContext, %struct.H263DSPContext, ptr, [2 x [2 x ptr]], i32, i32, [2 x [4 x [2 x i32]]], [2 x [2 x i32]], [2 x [2 x [2 x i32]]], [2 x [64 x i16]], i32, i32, i32, i32, i32, [6 x i32], [6 x i32], [3 x ptr], ptr, [64 x i16], [64 x i16], [64 x i16], [64 x i16], i32, i32, %struct.GetBitContext, i32, i32, i32, i32, i32, i32, i32, i32, i32, i32, i32, i32, i32, i32, i32, i64, i64, i16, i16, i16, i16, i32, i32, i32, i32, i32, i32, i32, i32, i32, [3 x i32], i32, i32, i32, i32, i32, i32, %struct.GetBitContext, i32, [2 x [2 x i32]], i32, i32, i32, i32, i32, i32, i32, i32, i32, i32, i32, i32, i32, i32, [2 x i32], i32, i32, ptr, ptr, ptr, ptr, ptr, i32, i32, %struct.ERContext }
%struct.ScanTable = type { ptr, [64 x i8], [64 x i8] }
%struct.BufferPoolContext = type { ptr, ptr, ptr, ptr, ptr, i32, i32, i32 }
%union.anon = type { [32 x ptr] }
%struct.MPVWorkPicture = type { [3 x ptr], [3 x i64], ptr, ptr, [2 x ptr], ptr, ptr, [2 x ptr], i32 }
%struct.ScratchpadContext = type { ptr, ptr, %union.anon.0, i32 }
%union.anon.0 = type { ptr }
%struct.BlockDSPContext = type { ptr, ptr, [2 x ptr] }
%struct.H264ChromaContext = type { [4 x ptr], [4 x ptr] }
%struct.HpelDSPContext = type { [4 x [4 x ptr]], [4 x [4 x ptr]], [4 x [4 x ptr]], [4 x ptr] }
%struct.IDCTDSPContext = type { ptr, ptr, ptr, ptr, ptr, ptr, [64 x i8], i32, i32 }
%struct.QpelDSPContext = type { [2 x [16 x ptr]], [2 x [16 x ptr]], [2 x [16 x ptr]] }
%struct.VideoDSPContext = type { ptr, ptr }
%struct.H263DSPContext = type { ptr, ptr }
%struct.GetBitContext = type { ptr, ptr, i32, i32, i32 }
%struct.ERContext = type { ptr, ptr, i32, ptr, i32, i32, i32, i64, i64, i32, i32, ptr, ptr, [3 x ptr], ptr, ptr, [2 x [4 x [2 x i32]]], %struct.ERPicture, %struct.ERPicture, %struct.ERPicture, [2 x ptr], [2 x ptr], i16, i16, i32, i32, ptr, ptr }
%struct.ERPicture = type { ptr, ptr, ptr, [2 x ptr], [2 x ptr], ptr, i32 }

@ff_mba_max = external constant [6 x i16], align 2
@ff_mba_length = external constant [7 x i8], align 1

; Function Attrs: alwaysinline nounwind willreturn memory(none) uwtable
define internal i32 @av_bswap32(i32 noundef %0) #9 {
  %2 = alloca i32, align 4
  store i32 %0, ptr %2, align 4, !tbaa !67
  %3 = load i32, ptr %2, align 4, !tbaa !67
  %4 = shl i32 %3, 8
  %5 = and i32 %4, 65280
  %6 = load i32, ptr %2, align 4, !tbaa !67
  %7 = lshr i32 %6, 8
  %8 = and i32 %7, 255
  %9 = or i32 %5, %8
  %10 = shl i32 %9, 16
  %11 = load i32, ptr %2, align 4, !tbaa !67
  %12 = lshr i32 %11, 16
  %13 = shl i32 %12, 8
  %14 = and i32 %13, 65280
  %15 = load i32, ptr %2, align 4, !tbaa !67
  %16 = lshr i32 %15, 16
  %17 = lshr i32 %16, 8
  %18 = and i32 %17, 255
  %19 = or i32 %14, %18
  %20 = or i32 %10, %19
  ret i32 %20
}

; Function Attrs: inlinehint nounwind uwtable
define internal i32 @get_bits(ptr noundef %0, i32 noundef %1) #4 {
  %3 = alloca ptr, align 8
  %4 = alloca i32, align 4
  %5 = alloca i32, align 4
  %6 = alloca i32, align 4
  %7 = alloca i32, align 4
  store ptr %0, ptr %3, align 8, !tbaa !79
  store i32 %1, ptr %4, align 4, !tbaa !67
  call void @llvm.lifetime.start.p0(i64 4, ptr %5) #10
  call void @llvm.lifetime.start.p0(i64 4, ptr %6) #10
  %8 = load ptr, ptr %3, align 8, !tbaa !79
  %9 = getelementptr inbounds nuw %struct.GetBitContext, ptr %8, i32 0, i32 2
  %10 = load i32, ptr %9, align 8, !tbaa !81
  store i32 %10, ptr %6, align 4, !tbaa !67
  call void @llvm.lifetime.start.p0(i64 4, ptr %7) #10
  %11 = load ptr, ptr %3, align 8, !tbaa !79
  %12 = getelementptr inbounds nuw %struct.GetBitContext, ptr %11, i32 0, i32 0
  %13 = load ptr, ptr %12, align 8, !tbaa !82
  %14 = load i32, ptr %6, align 4, !tbaa !67
  %15 = lshr i32 %14, 3
  %16 = zext i32 %15 to i64
  %17 = getelementptr inbounds nuw i8, ptr %13, i64 %16
  %18 = load i32, ptr %17, align 1, !tbaa !75
  %19 = call i32 @av_bswap32(i32 noundef %18) #11
  %20 = load i32, ptr %6, align 4, !tbaa !67
  %21 = and i32 %20, 7
  %22 = shl i32 %19, %21
  %23 = lshr i32 %22, 0
  store i32 %23, ptr %7, align 4, !tbaa !67
  %24 = load i32, ptr %7, align 4, !tbaa !67
  %25 = load i32, ptr %4, align 4, !tbaa !67
  %26 = sub nsw i32 32, %25
  %27 = lshr i32 %24, %26
  store i32 %27, ptr %5, align 4, !tbaa !67
  %28 = load i32, ptr %4, align 4, !tbaa !67
  %29 = load i32, ptr %6, align 4, !tbaa !67
  %30 = add i32 %29, %28
  store i32 %30, ptr %6, align 4, !tbaa !67
  %31 = load i32, ptr %6, align 4, !tbaa !67
  %32 = load ptr, ptr %3, align 8, !tbaa !79
  %33 = getelementptr inbounds nuw %struct.GetBitContext, ptr %32, i32 0, i32 2
  store i32 %31, ptr %33, align 8, !tbaa !81
  %34 = load i32, ptr %5, align 4, !tbaa !67
  call void @llvm.lifetime.end.p0(i64 4, ptr %7) #10
  call void @llvm.lifetime.end.p0(i64 4, ptr %6) #10
  call void @llvm.lifetime.end.p0(i64 4, ptr %5) #10
  ret i32 %34
}

; Function Attrs: nounwind uwtable
define i32 @ff_h263_decode_mba(ptr noundef %0) #0 {
  %2 = alloca ptr, align 8
  %3 = alloca i32, align 4
  %4 = alloca i32, align 4
  store ptr %0, ptr %2, align 8, !tbaa !4
  call void @llvm.lifetime.start.p0(i64 4, ptr %3) #10
  call void @llvm.lifetime.start.p0(i64 4, ptr %4) #10
  store i32 0, ptr %3, align 4, !tbaa !67
  br label %5

5:                                                ; preds = %21, %1
  %6 = load i32, ptr %3, align 4, !tbaa !67
  %7 = icmp slt i32 %6, 6
  br i1 %7, label %8, label %24

8:                                                ; preds = %5
  %9 = load ptr, ptr %2, align 8, !tbaa !4
  %10 = getelementptr inbounds nuw %struct.MpegEncContext, ptr %9, i32 0, i32 31
  %11 = load i32, ptr %10, align 4, !tbaa !72
  %12 = sub nsw i32 %11, 1
  %13 = load i32, ptr %3, align 4, !tbaa !67
  %14 = sext i32 %13 to i64
  %15 = getelementptr inbounds [6 x i16], ptr @ff_mba_max, i64 0, i64 %14
  %16 = load i16, ptr %15, align 2, !tbaa !73
  %17 = zext i16 %16 to i32
  %18 = icmp sle i32 %12, %17
  br i1 %18, label %19, label %20

19:                                               ; preds = %8
  br label %24

20:                                               ; preds = %8
  br label %21

21:                                               ; preds = %20
  %22 = load i32, ptr %3, align 4, !tbaa !67
  %23 = add nsw i32 %22, 1
  store i32 %23, ptr %3, align 4, !tbaa !67
  br label %5, !llvm.loop !74

24:                                               ; preds = %19, %5
  %25 = load ptr, ptr %2, align 8, !tbaa !4
  %26 = getelementptr inbounds nuw %struct.MpegEncContext, ptr %25, i32 0, i32 134
  %27 = load i32, ptr %3, align 4, !tbaa !67
  %28 = sext i32 %27 to i64
  %29 = getelementptr inbounds [7 x i8], ptr @ff_mba_length, i64 0, i64 %28
  %30 = load i8, ptr %29, align 1, !tbaa !75
  %31 = zext i8 %30 to i32
  %32 = call i32 @get_bits(ptr noundef %26, i32 noundef %31)
  store i32 %32, ptr %4, align 4, !tbaa !67
  %33 = load i32, ptr %4, align 4, !tbaa !67
  %34 = load ptr, ptr %2, align 8, !tbaa !4
  %35 = getelementptr inbounds nuw %struct.MpegEncContext, ptr %34, i32 0, i32 25
  %36 = load i32, ptr %35, align 4, !tbaa !76
  %37 = srem i32 %33, %36
  %38 = load ptr, ptr %2, align 8, !tbaa !4
  %39 = getelementptr inbounds nuw %struct.MpegEncContext, ptr %38, i32 0, i32 82
  store i32 %37, ptr %39, align 4, !tbaa !77
  %40 = load i32, ptr %4, align 4, !tbaa !67
  %41 = load ptr, ptr %2, align 8, !tbaa !4
  %42 = getelementptr inbounds nuw %struct.MpegEncContext, ptr %41, i32 0, i32 25
  %43 = load i32, ptr %42, align 4, !tbaa !76
  %44 = sdiv i32 %40, %43
  %45 = load ptr, ptr %2, align 8, !tbaa !4
  %46 = getelementptr inbounds nuw %struct.MpegEncContext, ptr %45, i32 0, i32 83
  store i32 %44, ptr %46, align 8, !tbaa !78
  %47 = load i32, ptr %4, align 4, !tbaa !67
  call void @llvm.lifetime.end.p0(i64 4, ptr %4) #10
  call void @llvm.lifetime.end.p0(i64 4, ptr %3) #10
  ret i32 %47
}