; Function Attrs: nofree norecurse nosync nounwind memory(read, argmem: readwrite, inaccessiblemem: none) uwtable
define i32 @ff_h263_decode_mba(ptr noundef captures(none) %0) local_unnamed_addr #3 {
  %2 = getelementptr inbounds nuw i8, ptr %0, i64 564
  %3 = load i32, ptr %2, align 4, !tbaa !69
  %4 = add nsw i32 %3, -1
  br label %5

5:                                                ; preds = %1, %9
  %indvars.iv = phi i64 [ 0, %1 ], [ %indvars.iv.next, %9 ]
  %6 = getelementptr inbounds nuw [6 x i16], ptr @ff_mba_max, i64 0, i64 %indvars.iv
  %7 = load i16, ptr %6, align 2, !tbaa !70
  %8 = zext i16 %7 to i32
  %.not = icmp sgt i32 %4, %8
  br i1 %.not, label %9, label %10

9:                                                ; preds = %5
  %indvars.iv.next = add nuw nsw i64 %indvars.iv, 1
  %exitcond.not = icmp eq i64 %indvars.iv.next, 6
  br i1 %exitcond.not, label %10, label %5, !llvm.loop !71

10:                                               ; preds = %5, %9
  %.0.lcssa = phi i64 [ %indvars.iv, %5 ], [ 6, %9 ]
  %11 = getelementptr inbounds nuw i8, ptr %0, i64 4160
  %12 = and i64 %.0.lcssa, 4294967295
  %13 = getelementptr inbounds nuw [7 x i8], ptr @ff_mba_length, i64 0, i64 %12
  %14 = load i8, ptr %13, align 1, !tbaa !72
  %15 = zext i8 %14 to i32
  %16 = getelementptr inbounds nuw i8, ptr %0, i64 4176
  %17 = load i32, ptr %16, align 8, !tbaa !73
  %18 = load ptr, ptr %11, align 8, !tbaa !74
  %19 = lshr i32 %17, 3
  %20 = zext nneg i32 %19 to i64
  %21 = getelementptr inbounds nuw i8, ptr %18, i64 %20
  %22 = load i32, ptr %21, align 1, !tbaa !72
  %23 = tail call i32 @llvm.bswap.i32(i32 %22)
  %24 = and i32 %17, 7
  %25 = shl i32 %23, %24
  %26 = sub nsw i32 32, %15
  %27 = lshr i32 %25, %26
  %28 = add i32 %17, %15
  store i32 %28, ptr %16, align 8, !tbaa !73
  %29 = getelementptr inbounds nuw i8, ptr %0, i64 540
  %30 = load i32, ptr %29, align 4, !tbaa !75
  %31 = srem i32 %27, %30
  %32 = getelementptr inbounds nuw i8, ptr %0, i64 3348
  store i32 %31, ptr %32, align 4, !tbaa !76
  %33 = sdiv i32 %27, %30
  %34 = getelementptr inbounds nuw i8, ptr %0, i64 3352
  store i32 %33, ptr %34, align 8, !tbaa !77
  ret i32 %27
}